target datalayout = "e-m:e-p270:32:32-p271:32:32-p272:64:64-i64:64-i128:128-f80:128-n8:16:32:64-S128"
target triple = "x86_64-pc-linux-gnu"

%struct.PJconsts = type { ptr, ptr, ptr, ptr, ptr, ptr, ptr, ptr, ptr, ptr, ptr, ptr, i32, ptr, ptr, ptr, ptr, ptr, ptr, ptr, ptr, double, double, double, double, double, double, double, double, double, double, double, double, double, double, double, double, double, double, double, double, double, double, i32, i32, i32, i32, i32, i32, i32, i32, i32, i32, i32, ptr, ptr, ptr, ptr, ptr, ptr, double, double, double, double, double, double, double, double, double, double, double, i32, [7 x double], i32, ptr, ptr, double, double, i32, [4 x i8], %"class.std::shared_ptr", i8, double, i8, %"class.std::__cxx11::basic_string", %"class.std::__cxx11::basic_string", %"class.std::__cxx11::basic_string", i8, %"class.std::vector", i32, %"class.std::vector.3", i32, i8, i8, i8, ptr }
%"class.std::shared_ptr" = type { %"class.std::__shared_ptr" }
%"class.std::__shared_ptr" = type { ptr, %"class.std::__shared_count" }
%"class.std::__shared_count" = type { ptr }
%"class.std::__cxx11::basic_string" = type { %"struct.std::__cxx11::basic_string<char>::_Alloc_hider", i64, %union.anon }
%"struct.std::__cxx11::basic_string<char>::_Alloc_hider" = type { ptr }
%union.anon = type { i64, [8 x i8] }
%"class.std::vector" = type { %"struct.std::_Vector_base" }
%"struct.std::_Vector_base" = type { %"struct.std::_Vector_base<osgeo::proj::operation::GridDescription, std::allocator<osgeo::proj::operation::GridDescription>>::_Vector_impl" }
%"struct.std::_Vector_base<osgeo::proj::operation::GridDescription, std::allocator<osgeo::proj::operation::GridDescription>>::_Vector_impl" = type { %"struct.std::_Vector_base<osgeo::proj::operation::GridDescription, std::allocator<osgeo::proj::operation::GridDescription>>::_Vector_impl_data" }
%"struct.std::_Vector_base<osgeo::proj::operation::GridDescription, std::allocator<osgeo::proj::operation::GridDescription>>::_Vector_impl_data" = type { ptr, ptr, ptr }
%"class.std::vector.3" = type { %"struct.std::_Vector_base.4" }
%"struct.std::_Vector_base.4" = type { %"struct.std::_Vector_base<PJCoordOperation, std::allocator<PJCoordOperation>>::_Vector_impl" }
%"struct.std::_Vector_base<PJCoordOperation, std::allocator<PJCoordOperation>>::_Vector_impl" = type { %"struct.std::_Vector_base<PJCoordOperation, std::allocator<PJCoordOperation>>::_Vector_impl_data" }
%"struct.std::_Vector_base<PJCoordOperation, std::allocator<PJCoordOperation>>::_Vector_impl_data" = type { ptr, ptr, ptr }
%"struct.(anonymous namespace)::pj_nsper_data" = type { double, double, double, double, double, double, double, double, double, double, double, double, i32, i32 }
%union.PROJVALUE = type { double }

@.str.4 = private unnamed_addr constant [3 x i8] c"dh\00", align 1
@.str.5 = private unnamed_addr constant [20 x i8] c"Invalid value for h\00", align 1

; Function Attrs: mustprogress uwtable
define internal noundef ptr @_ZL11nsper_setupP8PJconsts(ptr noundef %0) #0 {
  %2 = alloca ptr, align 8
  %3 = alloca ptr, align 8
  %4 = alloca ptr, align 8
  %5 = alloca %union.PROJVALUE, align 8
  %6 = alloca i32, align 4
  store ptr %0, ptr %3, align 8, !tbaa !3
  call void @llvm.lifetime.start.p0(i64 8, ptr %4) #7
  %7 = load ptr, ptr %3, align 8, !tbaa !3
  %8 = getelementptr inbounds nuw %struct.PJconsts, ptr %7, i32 0, i32 11
  %9 = load ptr, ptr %8, align 8, !tbaa !43
  store ptr %9, ptr %4, align 8, !tbaa !41
  call void @llvm.lifetime.start.p0(i64 8, ptr %5) #7
  %10 = load ptr, ptr %3, align 8, !tbaa !3
  %11 = getelementptr inbounds nuw %struct.PJconsts, ptr %10, i32 0, i32 0
  %12 = load ptr, ptr %11, align 8, !tbaa !47
  %13 = load ptr, ptr %3, align 8, !tbaa !3
  %14 = getelementptr inbounds nuw %struct.PJconsts, ptr %13, i32 0, i32 3
  %15 = load ptr, ptr %14, align 8, !tbaa !48
  %16 = call i64 @_Z8pj_paramP6pj_ctxP8ARG_listPKc(ptr noundef %12, ptr noundef %15, ptr noundef @.str.4)
  %17 = getelementptr inbounds nuw %union.PROJVALUE, ptr %5, i32 0, i32 0
  store i64 %16, ptr %17, align 8
  %18 = load double, ptr %5, align 8, !tbaa !49
  %19 = load ptr, ptr %4, align 8, !tbaa !41
  %20 = getelementptr inbounds nuw %"struct.(anonymous namespace)::pj_nsper_data", ptr %19, i32 0, i32 0
  store double %18, ptr %20, align 8, !tbaa !50
  call void @llvm.lifetime.end.p0(i64 8, ptr %5) #7
  %21 = load ptr, ptr %3, align 8, !tbaa !3
  %22 = getelementptr inbounds nuw %struct.PJconsts, ptr %21, i32 0, i32 61
  %23 = load double, ptr %22, align 8, !tbaa !51
  %24 = call double @llvm.fabs.f64(double %23)
  %25 = fsub double %24, 0x3FF921FB54442D18
  %26 = call double @llvm.fabs.f64(double %25)
  %27 = fcmp olt double %26, 1.000000e-10
  br i1 %27, label %28, label %36

28:                                               ; preds = %1
  %29 = load ptr, ptr %3, align 8, !tbaa !3
  %30 = getelementptr inbounds nuw %struct.PJconsts, ptr %29, i32 0, i32 61
  %31 = load double, ptr %30, align 8, !tbaa !51
  %32 = fcmp olt double %31, 0.000000e+00
  %33 = select i1 %32, i32 1, i32 0
  %34 = load ptr, ptr %4, align 8, !tbaa !41
  %35 = getelementptr inbounds nuw %"struct.(anonymous namespace)::pj_nsper_data", ptr %34, i32 0, i32 12
  store i32 %33, ptr %35, align 8, !tbaa !52
  br label %61

36:                                               ; preds = %1
  %37 = load ptr, ptr %3, align 8, !tbaa !3
  %38 = getelementptr inbounds nuw %struct.PJconsts, ptr %37, i32 0, i32 61
  %39 = load double, ptr %38, align 8, !tbaa !51
  %40 = call double @llvm.fabs.f64(double %39)
  %41 = fcmp olt double %40, 1.000000e-10
  br i1 %41, label %42, label %45

42:                                               ; preds = %36
  %43 = load ptr, ptr %4, align 8, !tbaa !41
  %44 = getelementptr inbounds nuw %"struct.(anonymous namespace)::pj_nsper_data", ptr %43, i32 0, i32 12
  store i32 2, ptr %44, align 8, !tbaa !52
  br label %60

45:                                               ; preds = %36
  %46 = load ptr, ptr %4, align 8, !tbaa !41
  %47 = getelementptr inbounds nuw %"struct.(anonymous namespace)::pj_nsper_data", ptr %46, i32 0, i32 12
  store i32 3, ptr %47, align 8, !tbaa !52
  %48 = load ptr, ptr %3, align 8, !tbaa !3
  %49 = getelementptr inbounds nuw %struct.PJconsts, ptr %48, i32 0, i32 61
  %50 = load double, ptr %49, align 8, !tbaa !51
  %51 = call double @sin(double noundef %50) #7, !tbaa !53
  %52 = load ptr, ptr %4, align 8, !tbaa !41
  %53 = getelementptr inbounds nuw %"struct.(anonymous namespace)::pj_nsper_data", ptr %52, i32 0, i32 1
  store double %51, ptr %53, align 8, !tbaa !54
  %54 = load ptr, ptr %3, align 8, !tbaa !3
  %55 = getelementptr inbounds nuw %struct.PJconsts, ptr %54, i32 0, i32 61
  %56 = load double, ptr %55, align 8, !tbaa !51
  %57 = call double @cos(double noundef %56) #7, !tbaa !53
  %58 = load ptr, ptr %4, align 8, !tbaa !41
  %59 = getelementptr inbounds nuw %"struct.(anonymous namespace)::pj_nsper_data", ptr %58, i32 0, i32 2
  store double %57, ptr %59, align 8, !tbaa !55
  br label %60

60:                                               ; preds = %45, %42
  br label %61

61:                                               ; preds = %60, %28
  %62 = load ptr, ptr %4, align 8, !tbaa !41
  %63 = getelementptr inbounds nuw %"struct.(anonymous namespace)::pj_nsper_data", ptr %62, i32 0, i32 0
  %64 = load double, ptr %63, align 8, !tbaa !50
  %65 = load ptr, ptr %3, align 8, !tbaa !3
  %66 = getelementptr inbounds nuw %struct.PJconsts, ptr %65, i32 0, i32 21
  %67 = load double, ptr %66, align 8, !tbaa !56
  %68 = fdiv double %64, %67
  %69 = load ptr, ptr %4, align 8, !tbaa !41
  %70 = getelementptr inbounds nuw %"struct.(anonymous namespace)::pj_nsper_data", ptr %69, i32 0, i32 5
  store double %68, ptr %70, align 8, !tbaa !57
  %71 = load ptr, ptr %4, align 8, !tbaa !41
  %72 = getelementptr inbounds nuw %"struct.(anonymous namespace)::pj_nsper_data", ptr %71, i32 0, i32 5
  %73 = load double, ptr %72, align 8, !tbaa !57
  %74 = fcmp ole double %73, 0.000000e+00
  br i1 %74, label %80, label %75

75:                                               ; preds = %61
  %76 = load ptr, ptr %4, align 8, !tbaa !41
  %77 = getelementptr inbounds nuw %"struct.(anonymous namespace)::pj_nsper_data", ptr %76, i32 0, i32 5
  %78 = load double, ptr %77, align 8, !tbaa !57
  %79 = fcmp ogt double %78, 1.000000e+10
  br i1 %79, label %80, label %84

80:                                               ; preds = %75, %61
  %81 = load ptr, ptr %3, align 8, !tbaa !3
  call void (ptr, ptr, ...) @_Z14proj_log_errorPK8PJconstsPKcz(ptr noundef %81, ptr noundef @.str.5)
  %82 = load ptr, ptr %3, align 8, !tbaa !3
  %83 = call noundef ptr @_Z21pj_default_destructorP8PJconstsi(ptr noundef %82, i32 noundef 1027)
  store ptr %83, ptr %2, align 8
  store i32 1, ptr %6, align 4
  br label %120

84:                                               ; preds = %75
  %85 = load ptr, ptr %4, align 8, !tbaa !41
  %86 = getelementptr inbounds nuw %"struct.(anonymous namespace)::pj_nsper_data", ptr %85, i32 0, i32 5
  %87 = load double, ptr %86, align 8, !tbaa !57
  %88 = fadd double 1.000000e+00, %87
  %89 = load ptr, ptr %4, align 8, !tbaa !41
  %90 = getelementptr inbounds nuw %"struct.(anonymous namespace)::pj_nsper_data", ptr %89, i32 0, i32 3
  store double %88, ptr %90, align 8, !tbaa !58
  %91 = load ptr, ptr %4, align 8, !tbaa !41
  %92 = getelementptr inbounds nuw %"struct.(anonymous namespace)::pj_nsper_data", ptr %91, i32 0, i32 3
  %93 = load double, ptr %92, align 8, !tbaa !58
  %94 = fdiv double 1.000000e+00, %93
  %95 = load ptr, ptr %4, align 8, !tbaa !41
  %96 = getelementptr inbounds nuw %"struct.(anonymous namespace)::pj_nsper_data", ptr %95, i32 0, i32 4
  store double %94, ptr %96, align 8, !tbaa !59
  %97 = load ptr, ptr %4, align 8, !tbaa !41
  %98 = getelementptr inbounds nuw %"struct.(anonymous namespace)::pj_nsper_data", ptr %97, i32 0, i32 5
  %99 = load double, ptr %98, align 8, !tbaa !57
  %100 = fdiv double 1.000000e+00, %99
  %101 = load ptr, ptr %4, align 8, !tbaa !41
  %102 = getelementptr inbounds nuw %"struct.(anonymous namespace)::pj_nsper_data", ptr %101, i32 0, i32 7
  store double %100, ptr %102, align 8, !tbaa !60
  %103 = load ptr, ptr %4, align 8, !tbaa !41
  %104 = getelementptr inbounds nuw %"struct.(anonymous namespace)::pj_nsper_data", ptr %103, i32 0, i32 3
  %105 = load double, ptr %104, align 8, !tbaa !58
  %106 = fadd double %105, 1.000000e+00
  %107 = load ptr, ptr %4, align 8, !tbaa !41
  %108 = getelementptr inbounds nuw %"struct.(anonymous namespace)::pj_nsper_data", ptr %107, i32 0, i32 7
  %109 = load double, ptr %108, align 8, !tbaa !60
  %110 = fmul double %106, %109
  %111 = load ptr, ptr %4, align 8, !tbaa !41
  %112 = getelementptr inbounds nuw %"struct.(anonymous namespace)::pj_nsper_data", ptr %111, i32 0, i32 6
  store double %110, ptr %112, align 8, !tbaa !61
  %113 = load ptr, ptr %3, align 8, !tbaa !3
  %114 = getelementptr inbounds nuw %struct.PJconsts, ptr %113, i32 0, i32 14
  store ptr @_ZL15nsper_s_inverse5PJ_XYP8PJconsts, ptr %114, align 8, !tbaa !62
  %115 = load ptr, ptr %3, align 8, !tbaa !3
  %116 = getelementptr inbounds nuw %struct.PJconsts, ptr %115, i32 0, i32 13
  store ptr @_ZL15nsper_s_forward5PJ_LPP8PJconsts, ptr %116, align 8, !tbaa !63
  %117 = load ptr, ptr %3, align 8, !tbaa !3
  %118 = getelementptr inbounds nuw %struct.PJconsts, ptr %117, i32 0, i32 27
  store double 0.000000e+00, ptr %118, align 8, !tbaa !64
  %119 = load ptr, ptr %3, align 8, !tbaa !3
  store ptr %119, ptr %2, align 8
  store i32 1, ptr %6, align 4
  br label %120

120:                                              ; preds = %84, %80
  call void @llvm.lifetime.end.p0(i64 8, ptr %4) #7
  %121 = load ptr, ptr %2, align 8
  ret ptr %121
}