; Function Attrs: mustprogress uwtable
define internal fastcc noundef ptr @_ZL11nsper_setupP8PJconsts(ptr noundef %0) unnamed_addr #0 {
  %2 = getelementptr inbounds nuw i8, ptr %0, i64 88
  %3 = load ptr, ptr %2, align 8, !tbaa !3
  %4 = load ptr, ptr %0, align 8, !tbaa !41
  %5 = getelementptr inbounds nuw i8, ptr %0, i64 24
  %6 = load ptr, ptr %5, align 8, !tbaa !42
  %7 = tail call i64 @_Z8pj_paramP6pj_ctxP8ARG_listPKc(ptr noundef %4, ptr noundef %6, ptr noundef nonnull @.str.4)
  store i64 %7, ptr %3, align 8, !tbaa !43
  %8 = getelementptr inbounds nuw i8, ptr %0, i64 448
  %9 = load double, ptr %8, align 8, !tbaa !46
  %10 = tail call double @llvm.fabs.f64(double %9)
  %11 = fadd double %10, 0xBFF921FB54442D18
  %12 = tail call double @llvm.fabs.f64(double %11)
  %13 = fcmp olt double %12, 1.000000e-10
  %14 = bitcast i64 %7 to double
  br i1 %13, label %15, label %19

15:                                               ; preds = %1
  %16 = fcmp olt double %9, 0.000000e+00
  %17 = zext i1 %16 to i32
  %18 = getelementptr inbounds nuw i8, ptr %3, i64 96
  store i32 %17, ptr %18, align 8, !tbaa !47
  br label %28

19:                                               ; preds = %1
  %20 = fcmp olt double %10, 1.000000e-10
  %21 = getelementptr inbounds nuw i8, ptr %3, i64 96
  br i1 %20, label %22, label %23

22:                                               ; preds = %19
  store i32 2, ptr %21, align 8, !tbaa !47
  br label %28

23:                                               ; preds = %19
  store i32 3, ptr %21, align 8, !tbaa !47
  %24 = tail call double @sin(double noundef %9) #6, !tbaa !48
  %25 = getelementptr inbounds nuw i8, ptr %3, i64 8
  store double %24, ptr %25, align 8, !tbaa !49
  %26 = tail call double @cos(double noundef %9) #6, !tbaa !48
  %27 = getelementptr inbounds nuw i8, ptr %3, i64 16
  store double %26, ptr %27, align 8, !tbaa !50
  br label %28

28:                                               ; preds = %22, %23, %15
  %29 = getelementptr inbounds nuw i8, ptr %0, i64 168
  %30 = load double, ptr %29, align 8, !tbaa !51
  %31 = fdiv double %14, %30
  %32 = getelementptr inbounds nuw i8, ptr %3, i64 40
  store double %31, ptr %32, align 8, !tbaa !52
  %33 = fcmp ole double %31, 0.000000e+00
  %34 = fcmp ogt double %31, 1.000000e+10
  %or.cond = or i1 %33, %34
  br i1 %or.cond, label %35, label %37

35:                                               ; preds = %28
  tail call void (ptr, ptr, ...) @_Z14proj_log_errorPK8PJconstsPKcz(ptr noundef nonnull %0, ptr noundef nonnull @.str.5)
  %36 = tail call noundef ptr @_Z21pj_default_destructorP8PJconstsi(ptr noundef nonnull %0, i32 noundef 1027)
  br label %50

37:                                               ; preds = %28
  %38 = fadd double %31, 1.000000e+00
  %39 = getelementptr inbounds nuw i8, ptr %3, i64 24
  store double %38, ptr %39, align 8, !tbaa !53
  %40 = fdiv double 1.000000e+00, %38
  %41 = getelementptr inbounds nuw i8, ptr %3, i64 32
  store double %40, ptr %41, align 8, !tbaa !54
  %42 = fdiv double 1.000000e+00, %31
  %43 = getelementptr inbounds nuw i8, ptr %3, i64 56
  store double %42, ptr %43, align 8, !tbaa !55
  %44 = fadd double %38, 1.000000e+00
  %45 = fmul double %42, %44
  %46 = getelementptr inbounds nuw i8, ptr %3, i64 48
  store double %45, ptr %46, align 8, !tbaa !56
  %47 = getelementptr inbounds nuw i8, ptr %0, i64 112
  store ptr @_ZL15nsper_s_inverse5PJ_XYP8PJconsts, ptr %47, align 8, !tbaa !57
  %48 = getelementptr inbounds nuw i8, ptr %0, i64 104
  store ptr @_ZL15nsper_s_forward5PJ_LPP8PJconsts, ptr %48, align 8, !tbaa !58
  %49 = getelementptr inbounds nuw i8, ptr %0, i64 216
  store double 0.000000e+00, ptr %49, align 8, !tbaa !59
  br label %50

50:                                               ; preds = %37, %35
  %.0 = phi ptr [ %36, %35 ], [ %0, %37 ]
  ret ptr %.0
}